target datalayout = "e-m:e-p270:32:32-p271:32:32-p272:64:64-i64:64-i128:128-f80:128-n8:16:32:64-S128"
target triple = "x86_64-pc-linux-gnu"

%struct.xteakeys_assoc = type { i32, ptr }

@xteakeylist_uats = internal global ptr null, align 8
@nxteakeys = internal global i32 0, align 4
@xteakeys = hidden global ptr null, align 8
@g_ascii_table = external constant ptr, align 8

; Function Attrs: null_pointer_is_valid sspstrong uwtable
define internal void @xtea_parse_uat() #0 {
  %1 = alloca i32, align 4
  %2 = alloca i32, align 4
  %3 = alloca i32, align 4
  %4 = alloca ptr, align 8
  %5 = alloca ptr, align 8
  %6 = load ptr, ptr @xteakeys, align 8
  call void @g_hash_table_remove_all(ptr noundef %6)
  call void @llvm.lifetime.start.p0(i64 4, ptr %1) #17
  store i32 0, ptr %1, align 4
  br label %7

7:                                                ; preds = %83, %0
  %8 = load i32, ptr %1, align 4
  %9 = load i32, ptr @nxteakeys, align 4
  %10 = icmp ult i32 %8, %9
  br i1 %10, label %12, label %11

11:                                               ; preds = %7
  store i32 2, ptr %2, align 4
  call void @llvm.lifetime.end.p0(i64 4, ptr %1) #17
  br label %86

12:                                               ; preds = %7
  call void @llvm.lifetime.start.p0(i64 4, ptr %3) #17
  store i32 0, ptr %3, align 4
  call void @llvm.lifetime.start.p0(i64 8, ptr %4) #17
  %13 = call noalias ptr @g_malloc(i64 noundef 16) #20
  store ptr %13, ptr %4, align 8
  call void @llvm.lifetime.start.p0(i64 8, ptr %5) #17
  %14 = load ptr, ptr @xteakeylist_uats, align 8
  %15 = load i32, ptr %1, align 4
  %16 = zext i32 %15 to i64
  %17 = getelementptr %struct.xteakeys_assoc, ptr %14, i64 %16
  %18 = getelementptr inbounds nuw %struct.xteakeys_assoc, ptr %17, i32 0, i32 1
  %19 = load ptr, ptr %18, align 8
  store ptr %19, ptr %5, align 8
  br label %20

20:                                               ; preds = %68, %12
  %21 = load ptr, ptr %5, align 8
  %22 = getelementptr i8, ptr %21, i64 0
  %23 = load i8, ptr %22, align 1
  %24 = sext i8 %23 to i32
  %25 = icmp ne i32 %24, 0
  br i1 %25, label %26, label %35

26:                                               ; preds = %20
  %27 = load ptr, ptr %5, align 8
  %28 = getelementptr i8, ptr %27, i64 1
  %29 = load i8, ptr %28, align 1
  %30 = sext i8 %29 to i32
  %31 = icmp ne i32 %30, 0
  br i1 %31, label %32, label %35

32:                                               ; preds = %26
  %33 = load i32, ptr %3, align 4
  %34 = icmp ult i32 %33, 16
  br label %35

35:                                               ; preds = %32, %26, %20
  %36 = phi i1 [ false, %26 ], [ false, %20 ], [ %34, %32 ]
  br i1 %36, label %38, label %37

37:                                               ; preds = %35
  store i32 5, ptr %2, align 4
  call void @llvm.lifetime.end.p0(i64 8, ptr %5) #17
  br label %71

38:                                               ; preds = %35
  %39 = load ptr, ptr @g_ascii_table, align 8
  %40 = load ptr, ptr %5, align 8
  %41 = load i8, ptr %40, align 1
  %42 = zext i8 %41 to i64
  %43 = getelementptr i16, ptr %39, i64 %42
  %44 = load i16, ptr %43, align 2
  %45 = zext i16 %44 to i32
  %46 = and i32 %45, 128
  %47 = icmp ne i32 %46, 0
  br i1 %47, label %48, label %49

48:                                               ; preds = %38
  br label %68

49:                                               ; preds = %38
  %50 = load ptr, ptr %5, align 8
  %51 = getelementptr i8, ptr %50, i64 0
  %52 = load i8, ptr %51, align 1
  %53 = call i32 @g_ascii_xdigit_value(i8 noundef signext %52) #19
  %54 = shl i32 %53, 4
  %55 = load ptr, ptr %5, align 8
  %56 = getelementptr i8, ptr %55, i64 1
  %57 = load i8, ptr %56, align 1
  %58 = call i32 @g_ascii_xdigit_value(i8 noundef signext %57) #19
  %59 = add i32 %54, %58
  %60 = trunc i32 %59 to i8
  %61 = load ptr, ptr %4, align 8
  %62 = load i32, ptr %3, align 4
  %63 = add i32 %62, 1
  store i32 %63, ptr %3, align 4
  %64 = zext i32 %62 to i64
  %65 = getelementptr i8, ptr %61, i64 %64
  store i8 %60, ptr %65, align 1
  %66 = load ptr, ptr %5, align 8
  %67 = getelementptr i8, ptr %66, i32 1
  store ptr %67, ptr %5, align 8
  br label %68

68:                                               ; preds = %49, %48
  %69 = load ptr, ptr %5, align 8
  %70 = getelementptr i8, ptr %69, i32 1
  store ptr %70, ptr %5, align 8
  br label %20, !llvm.loop !11

71:                                               ; preds = %37
  %72 = load ptr, ptr @xteakeys, align 8
  %73 = load ptr, ptr @xteakeylist_uats, align 8
  %74 = load i32, ptr %1, align 4
  %75 = zext i32 %74 to i64
  %76 = getelementptr %struct.xteakeys_assoc, ptr %73, i64 %75
  %77 = getelementptr inbounds nuw %struct.xteakeys_assoc, ptr %76, i32 0, i32 0
  %78 = load i32, ptr %77, align 8
  %79 = zext i32 %78 to i64
  %80 = inttoptr i64 %79 to ptr
  %81 = load ptr, ptr %4, align 8
  %82 = call i32 @g_hash_table_insert(ptr noundef %72, ptr noundef %80, ptr noundef %81)
  call void @llvm.lifetime.end.p0(i64 8, ptr %4) #17
  call void @llvm.lifetime.end.p0(i64 4, ptr %3) #17
  br label %83

83:                                               ; preds = %71
  %84 = load i32, ptr %1, align 4
  %85 = add i32 %84, 1
  store i32 %85, ptr %1, align 4
  br label %7, !llvm.loop !12

86:                                               ; preds = %11
  ret void
}