; Function Attrs: null_pointer_is_valid sspstrong uwtable
define internal void @xtea_parse_uat() #0 {
  %1 = load ptr, ptr @xteakeys, align 8
  tail call void @g_hash_table_remove_all(ptr noundef %1)
  %2 = load i32, ptr @nxteakeys, align 4
  %.not25 = icmp eq i32 %2, 0
  br i1 %.not25, label %._crit_edge, label %.lr.ph24

.lr.ph24:                                         ; preds = %0
  %3 = load ptr, ptr @g_ascii_table, align 8
  br label %4

._crit_edge:                                      ; preds = %.critedge, %0
  ret void

4:                                                ; preds = %.lr.ph24, %.critedge
  %indvars.iv = phi i64 [ 0, %.lr.ph24 ], [ %indvars.iv.next, %.critedge ]
  %5 = tail call noalias dereferenceable_or_null(16) ptr @g_malloc(i64 noundef 16) #18
  %6 = load ptr, ptr @xteakeylist_uats, align 8
  %7 = getelementptr %struct.xteakeys_assoc, ptr %6, i64 %indvars.iv, i32 1
  %8 = load ptr, ptr %7, align 8
  %9 = load i8, ptr %8, align 1
  %.not19 = icmp eq i8 %9, 0
  br i1 %.not19, label %.critedge, label %.lr.ph

.lr.ph:                                           ; preds = %4, %38
  %10 = phi i8 [ %39, %38 ], [ %9, %4 ]
  %.021 = phi ptr [ %40, %38 ], [ %8, %4 ]
  %.01620 = phi i32 [ %.117, %38 ], [ 0, %4 ]
  %11 = getelementptr i8, ptr %.021, i64 1
  %12 = load i8, ptr %11, align 1
  %13 = icmp ne i8 %12, 0
  %14 = icmp ult i32 %.01620, 16
  %or.cond = select i1 %13, i1 %14, i1 false
  br i1 %or.cond, label %24, label %.critedge

.critedge:                                        ; preds = %38, %.lr.ph, %4
  %15 = load ptr, ptr @xteakeys, align 8
  %16 = getelementptr %struct.xteakeys_assoc, ptr %6, i64 %indvars.iv
  %17 = load i32, ptr %16, align 8
  %18 = zext i32 %17 to i64
  %19 = inttoptr i64 %18 to ptr
  %20 = tail call i32 @g_hash_table_insert(ptr noundef %15, ptr noundef %19, ptr noundef %5)
  %indvars.iv.next = add nuw nsw i64 %indvars.iv, 1
  %21 = load i32, ptr @nxteakeys, align 4
  %22 = zext i32 %21 to i64
  %23 = icmp samesign ult i64 %indvars.iv.next, %22
  br i1 %23, label %4, label %._crit_edge, !llvm.loop !13

24:                                               ; preds = %.lr.ph
  %25 = zext i8 %10 to i64
  %26 = getelementptr i16, ptr %3, i64 %25
  %27 = load i16, ptr %26, align 2
  %28 = and i16 %27, 128
  %.not18 = icmp eq i16 %28, 0
  br i1 %.not18, label %29, label %38

29:                                               ; preds = %24
  %30 = tail call i32 @g_ascii_xdigit_value(i8 noundef signext %10) #17
  %31 = shl i32 %30, 4
  %32 = tail call i32 @g_ascii_xdigit_value(i8 noundef signext %12) #17
  %33 = add i32 %31, %32
  %34 = trunc i32 %33 to i8
  %35 = add nuw nsw i32 %.01620, 1
  %36 = zext nneg i32 %.01620 to i64
  %37 = getelementptr i8, ptr %5, i64 %36
  store i8 %34, ptr %37, align 1
  %.phi.trans.insert = getelementptr i8, ptr %.021, i64 2
  %.pre = load i8, ptr %.phi.trans.insert, align 1
  br label %38

38:                                               ; preds = %24, %29
  %39 = phi i8 [ %12, %24 ], [ %.pre, %29 ]
  %.117 = phi i32 [ %.01620, %24 ], [ %35, %29 ]
  %.1 = phi ptr [ %.021, %24 ], [ %11, %29 ]
  %40 = getelementptr i8, ptr %.1, i64 1
  %.not = icmp eq i8 %39, 0
  br i1 %.not, label %.critedge, label %.lr.ph, !llvm.loop !14
}